# SymbolsHelper-Confirmed: 4:4.7.0~rc1 amd64
libQtOpenVG.so.4 libqt4-openvg #MINVER#
 _Z16qPixmapToVGImageRK7QPixmap@Base 4:4.7.0~rc1
 _Z20qt_vg_create_contextP12QPaintDevicei@Base 4:4.7.0~rc1
 _Z20qt_vg_shared_surfacev@Base 4:4.7.0~rc1
 _Z21qt_vg_destroy_contextP11QEglContexti@Base 4:4.7.0~rc1
 _Z24qt_vg_image_to_vg_formatN6QImage6FormatE@Base 4:4.7.0~rc1
 _Z25qt_vg_config_to_vg_formatP11QEglContext@Base 4:4.7.0~rc1
 _Z25qt_vg_create_paint_enginev@Base 4:4.7.0~rc1
 _Z26qt_vg_destroy_paint_engineP14QVGPaintEngine@Base 4:4.7.0~rc1
 _Z28qt_vg_config_to_image_formatP11QEglContext@Base 4:4.7.0~rc1
 _ZN12QDashStroker3endEv@Base 4:4.7.0~rc1
 _ZN12QDashStroker5beginEPv@Base 4:4.7.0~rc1
 _ZN12QVGImagePool11detachImageEP13QVGPixmapData@Base 4:4.7.0~rc1
 _ZN12QVGImagePool12reclaimSpaceE13VGImageFormatiiP13QVGPixmapData@Base 4:4.7.0~rc1
 _ZN12QVGImagePool12releaseImageEP13QVGPixmapDatal@Base 4:4.7.0~rc1
 _ZN12QVGImagePool12setImagePoolEPS_@Base 4:4.7.0~rc1
 _ZN12QVGImagePool13removeFromLRUEP13QVGPixmapData@Base 4:4.7.0~rc1
 _ZN12QVGImagePool15moveToHeadOfLRUEP13QVGPixmapData@Base 4:4.7.0~rc1
 _ZN12QVGImagePool20createImageForPixmapE13VGImageFormatiijP13QVGPixmapData@Base 4:4.7.0~rc1
 _ZN12QVGImagePool20createPermanentImageE13VGImageFormatiij@Base 4:4.7.0~rc1
 _ZN12QVGImagePool20createTemporaryImageE13VGImageFormatiijP13QVGPixmapData@Base 4:4.7.0~rc1
 _ZN12QVGImagePool8instanceEv@Base 4:4.7.0~rc1
 _ZN12QVGImagePool8useImageEP13QVGPixmapData@Base 4:4.7.0~rc1
 _ZN12QVGImagePool9hibernateEv@Base 4:4.7.0~rc1
 _ZN12QVGImagePool9pixmapLRUEv@Base 4:4.7.0~rc1
 _ZN12QVGImagePoolC1Ev@Base 4:4.7.0~rc1
 _ZN12QVGImagePoolC2Ev@Base 4:4.7.0~rc1
 _ZN12QVGImagePoolD0Ev@Base 4:4.7.0~rc1
 _ZN12QVGImagePoolD1Ev@Base 4:4.7.0~rc1
 _ZN12QVGImagePoolD2Ev@Base 4:4.7.0~rc1
 _ZN13QVGPixmapData12forceToImageEv@Base 4:4.7.0~rc1
 _ZN13QVGPixmapData13destroyImagesEv@Base 4:4.7.0~rc1
 _ZN13QVGPixmapData13reclaimImagesEv@Base 4:4.7.0~rc1
 _ZN13QVGPixmapData15setAlphaChannelERK7QPixmap@Base 4:4.7.0~rc1
 _ZN13QVGPixmapData19detachImageFromPoolEv@Base 4:4.7.0~rc1
 _ZN13QVGPixmapData22destroyImageAndContextEv@Base 4:4.7.0~rc1
 _ZN13QVGPixmapData4fillERK6QColor@Base 4:4.7.0~rc1
 _ZN13QVGPixmapData6bufferEv@Base 4:4.7.0~rc1
 _ZN13QVGPixmapData6resizeEii@Base 4:4.7.0~rc1
 _ZN13QVGPixmapData9fromImageERK6QImage6QFlagsIN2Qt19ImageConversionFlagEE@Base 4:4.7.0~rc1
 _ZN13QVGPixmapData9hibernateEv@Base 4:4.7.0~rc1
 _ZN13QVGPixmapData9toVGImageEd@Base 4:4.7.0~rc1
 _ZN13QVGPixmapData9toVGImageEv@Base 4:4.7.0~rc1
 _ZN13QVGPixmapDataC1EN11QPixmapData9PixelTypeE@Base 4:4.7.0~rc1
 _ZN13QVGPixmapDataC2EN11QPixmapData9PixelTypeE@Base 4:4.7.0~rc1
 _ZN13QVGPixmapDataD0Ev@Base 4:4.7.0~rc1
 _ZN13QVGPixmapDataD1Ev@Base 4:4.7.0~rc1
 _ZN13QVGPixmapDataD2Ev@Base 4:4.7.0~rc1
 _ZN14QVGPaintEngine10drawPixmapERK6QRectFRK7QPixmapS2_@Base 4:4.7.0~rc1
 _ZN14QVGPaintEngine10drawPixmapERK7QPointFRK7QPixmap@Base 4:4.7.0~rc1
 _ZN14QVGPaintEngine10drawPointsEPK6QPointi@Base 4:4.7.0~rc1
 _ZN14QVGPaintEngine10drawPointsEPK7QPointFi@Base 4:4.7.0~rc1
 _ZN14QVGPaintEngine10fillRegionERK7QRegionRK6QColorRK5QSize@Base 4:4.7.0~rc1
 _ZN14QVGPaintEngine10penChangedEv@Base 4:4.7.0~rc1
 _ZN14QVGPaintEngine11drawEllipseERK5QRect@Base 4:4.7.0~rc1
 _ZN14QVGPaintEngine11drawEllipseERK6QRectF@Base 4:4.7.0~rc1
 _ZN14QVGPaintEngine11drawPolygonEPK6QPointiN12QPaintEngine15PolygonDrawModeE@Base 4:4.7.0~rc1
 _ZN14QVGPaintEngine11drawPolygonEPK7QPointFiN12QPaintEngine15PolygonDrawModeE@Base 4:4.7.0~rc1
 _ZN14QVGPaintEngine12brushChangedEv@Base 4:4.7.0~rc1
 _ZN14QVGPaintEngine12drawTextItemERK7QPointFRK9QTextItem@Base 4:4.7.0~rc1
 _ZN14QVGPaintEngine12pixmapFilterEiPK13QPixmapFilter@Base 4:4.7.0~rc1
 _ZN14QVGPaintEngine12restoreStateE6QFlagsIN12QPaintEngine9DirtyFlagEE@Base 4:4.7.0~rc1
 _ZN14QVGPaintEngine13updateScissorEv@Base 4:4.7.0~rc1
 _ZN14QVGPaintEngine14opacityChangedEv@Base 4:4.7.0~rc1
 _ZN14QVGPaintEngine15drawRoundedRectERK6QRectFddN2Qt8SizeModeE@Base 4:4.7.0~rc1
 _ZN14QVGPaintEngine15drawTiledPixmapERK6QRectFRK7QPixmapRK7QPointF@Base 4:4.7.0~rc1
 _ZN14QVGPaintEngine16drawCachedGlyphsEiPKjRK5QFontP11QFontEngineRK7QPointFPK11QFixedPoint@Base 4:4.7.0~rc1
 _ZN14QVGPaintEngine16transformChangedEv@Base 4:4.7.0~rc1
 _ZN14QVGPaintEngine17defaultClipRegionEv@Base 4:4.7.0~rc1
 _ZN14QVGPaintEngine17endNativePaintingEv@Base 4:4.7.0~rc1
 _ZN14QVGPaintEngine17isDefaultClipRectERK5QRect@Base 4:4.7.0~rc1
 _ZN14QVGPaintEngine18brushOriginChangedEv@Base 4:4.7.0~rc1
 _ZN14QVGPaintEngine18clipEnabledChangedEv@Base 4:4.7.0~rc1
 _ZN14QVGPaintEngine18drawStaticTextItemEP15QStaticTextItem@Base 4:4.7.0~rc1
 _ZN14QVGPaintEngine18renderHintsChangedEv@Base 4:4.7.0~rc1
 _ZN14QVGPaintEngine19beginNativePaintingEv@Base 4:4.7.0~rc1
 _ZN14QVGPaintEngine19drawPixmapFragmentsEPKN8QPainter14PixmapFragmentEiRK7QPixmap6QFlagsINS0_18PixmapFragmentHintEE@Base 4:4.7.0~rc1
 _ZN14QVGPaintEngine19isDefaultClipRegionERK7QRegion@Base 4:4.7.0~rc1
 _ZN14QVGPaintEngine22compositionModeChangedEv@Base 4:4.7.0~rc1
 _ZN14QVGPaintEngine3endEv@Base 4:4.7.0~rc1
 _ZN14QVGPaintEngine4clipERK11QVectorPathN2Qt13ClipOperationE@Base 4:4.7.0~rc1
 _ZN14QVGPaintEngine4clipERK12QPainterPathN2Qt13ClipOperationE@Base 4:4.7.0~rc1
 _ZN14QVGPaintEngine4clipERK5QRectN2Qt13ClipOperationE@Base 4:4.7.0~rc1
 _ZN14QVGPaintEngine4clipERK7QRegionN2Qt13ClipOperationE@Base 4:4.7.0~rc1
 _ZN14QVGPaintEngine4drawERK11QVectorPath@Base 4:4.7.0~rc1
 _ZN14QVGPaintEngine4fillERK11QVectorPathRK6QBrush@Base 4:4.7.0~rc1
 _ZN14QVGPaintEngine5beginEP12QPaintDevice@Base 4:4.7.0~rc1
 _ZN14QVGPaintEngine6strokeERK11QVectorPathRK4QPen@Base 4:4.7.0~rc1
 _ZN14QVGPaintEngine8drawPathERK12QPainterPath@Base 4:4.7.0~rc1
 _ZN14QVGPaintEngine8fillRectERK6QRectFRK6QBrush@Base 4:4.7.0~rc1
 _ZN14QVGPaintEngine8fillRectERK6QRectFRK6QColor@Base 4:4.7.0~rc1
 _ZN14QVGPaintEngine8setStateEP13QPainterState@Base 4:4.7.0~rc1
 _ZN14QVGPaintEngine9clearRectERK6QRectFRK6QColor@Base 4:4.7.0~rc1
 _ZN14QVGPaintEngine9drawImageERK6QRectFRK6QImageS2_6QFlagsIN2Qt19ImageConversionFlagEE@Base 4:4.7.0~rc1
 _ZN14QVGPaintEngine9drawImageERK7QPointFRK6QImage@Base 4:4.7.0~rc1
 _ZN14QVGPaintEngine9drawLinesEPK5QLinei@Base 4:4.7.0~rc1
 _ZN14QVGPaintEngine9drawLinesEPK6QLineFi@Base 4:4.7.0~rc1
 _ZN14QVGPaintEngine9drawRectsEPK5QRecti@Base 4:4.7.0~rc1
 _ZN14QVGPaintEngine9drawRectsEPK6QRectFi@Base 4:4.7.0~rc1
 _ZN14QVGPaintEngineC1ER21QVGPaintEnginePrivate@Base 4:4.7.0~rc1
 _ZN14QVGPaintEngineC1Ev@Base 4:4.7.0~rc1
 _ZN14QVGPaintEngineC2ER21QVGPaintEnginePrivate@Base 4:4.7.0~rc1
 _ZN14QVGPaintEngineC2Ev@Base 4:4.7.0~rc1
 _ZN14QVGPaintEngineD0Ev@Base 4:4.7.0~rc1
 _ZN14QVGPaintEngineD1Ev@Base 4:4.7.0~rc1
 _ZN14QVGPaintEngineD2Ev@Base 4:4.7.0~rc1
 _ZN15QVGPainterStateC1ERS_@Base 4:4.7.0~rc1
 _ZN15QVGPainterStateC1Ev@Base 4:4.7.0~rc1
 _ZN15QVGPainterStateC2ERS_@Base 4:4.7.0~rc1
 _ZN15QVGPainterStateC2Ev@Base 4:4.7.0~rc1
 _ZN15QVGPainterStateD0Ev@Base 4:4.7.0~rc1
 _ZN15QVGPainterStateD1Ev@Base 4:4.7.0~rc1
 _ZN15QVGPainterStateD2Ev@Base 4:4.7.0~rc1
 _ZN16QVGWindowSurface10beginPaintERK7QRegion@Base 4:4.7.0~rc1
 _ZN16QVGWindowSurface11paintDeviceEv@Base 4:4.7.0~rc1
 _ZN16QVGWindowSurface11setGeometryERK5QRect@Base 4:4.7.0~rc1
 _ZN16QVGWindowSurface5flushEP7QWidgetRK7QRegionRK6QPoint@Base 4:4.7.0~rc1
 _ZN16QVGWindowSurface6scrollERK7QRegionii@Base 4:4.7.0~rc1
 _ZN16QVGWindowSurface8endPaintERK7QRegion@Base 4:4.7.0~rc1
 _ZN16QVGWindowSurfaceC1EP7QWidget@Base 4:4.7.0~rc1
 _ZN16QVGWindowSurfaceC1EP7QWidgetP26QVGEGLWindowSurfacePrivate@Base 4:4.7.0~rc1
 _ZN16QVGWindowSurfaceC2EP7QWidget@Base 4:4.7.0~rc1
 _ZN16QVGWindowSurfaceC2EP7QWidgetP26QVGEGLWindowSurfacePrivate@Base 4:4.7.0~rc1
 _ZN16QVGWindowSurfaceD0Ev@Base 4:4.7.0~rc1
 _ZN16QVGWindowSurfaceD1Ev@Base 4:4.7.0~rc1
 _ZN16QVGWindowSurfaceD2Ev@Base 4:4.7.0~rc1
 _ZN20QVGCompositionHelper10blitWindowElRK5QSizeRK5QRectRK6QPointi@Base 4:4.7.0~rc1
 _ZN20QVGCompositionHelper10setScissorERK7QRegion@Base 4:4.7.0~rc1
 _ZN20QVGCompositionHelper12clearScissorEv@Base 4:4.7.0~rc1
 _ZN20QVGCompositionHelper14endCompositingEv@Base 4:4.7.0~rc1
 _ZN20QVGCompositionHelper14fillBackgroundERK7QRegionRK6QBrush@Base 4:4.7.0~rc1
 _ZN20QVGCompositionHelper16drawCursorPixmapERK7QPixmapRK6QPoint@Base 4:4.7.0~rc1
 _ZN20QVGCompositionHelper16startCompositingERK5QSize@Base 4:4.7.0~rc1
 _ZN20QVGCompositionHelperC1Ev@Base 4:4.7.0~rc1
 _ZN20QVGCompositionHelperC2Ev@Base 4:4.7.0~rc1
 _ZN20QVGCompositionHelperD0Ev@Base 4:4.7.0~rc1
 _ZN20QVGCompositionHelperD1Ev@Base 4:4.7.0~rc1
 _ZN20QVGCompositionHelperD2Ev@Base 4:4.7.0~rc1
 _ZN25QVGEGLWindowSurfaceDirect10beginPaintEP7QWidget@Base 4:4.7.0~rc1
 _ZN25QVGEGLWindowSurfaceDirect13ensureContextEP7QWidget@Base 4:4.7.0~rc1
 _ZN25QVGEGLWindowSurfaceDirect6scrollEP7QWidgetRK7QRegionii@Base 4:4.7.0~rc1
 _ZN25QVGEGLWindowSurfaceDirect8endPaintEP7QWidgetRK7QRegionP6QImage@Base 4:4.7.0~rc1
 _ZN25QVGEGLWindowSurfaceDirectC1EP14QWindowSurface@Base 4:4.7.0~rc1
 _ZN25QVGEGLWindowSurfaceDirectC2EP14QWindowSurface@Base 4:4.7.0~rc1
 _ZN25QVGEGLWindowSurfaceDirectD0Ev@Base 4:4.7.0~rc1
 _ZN25QVGEGLWindowSurfaceDirectD1Ev@Base 4:4.7.0~rc1
 _ZN25QVGEGLWindowSurfaceDirectD2Ev@Base 4:4.7.0~rc1
 _ZN26QVGEGLWindowSurfacePrivate11paintEngineEv@Base 4:4.7.0~rc1
 _ZN26QVGEGLWindowSurfacePrivate18destroyPaintEngineEv@Base 4:4.7.0~rc1
 _ZN26QVGEGLWindowSurfacePrivateC1EP14QWindowSurface@Base 4:4.7.0~rc1
 _ZN26QVGEGLWindowSurfacePrivateC2EP14QWindowSurface@Base 4:4.7.0~rc1
 _ZN26QVGEGLWindowSurfacePrivateD0Ev@Base 4:4.7.0~rc1
 _ZN26QVGEGLWindowSurfacePrivateD1Ev@Base 4:4.7.0~rc1
 _ZN26QVGEGLWindowSurfacePrivateD2Ev@Base 4:4.7.0~rc1
 _ZN26QVGEGLWindowSurfaceVGImage10beginPaintEP7QWidget@Base 4:4.7.0~rc1
 _ZN26QVGEGLWindowSurfaceVGImage13ensureContextEP7QWidget@Base 4:4.7.0~rc1
 _ZN26QVGEGLWindowSurfaceVGImage8endPaintEP7QWidgetRK7QRegionP6QImage@Base 4:4.7.0~rc1
 _ZN26QVGEGLWindowSurfaceVGImageC1EP14QWindowSurface@Base 4:4.7.0~rc1
 _ZN26QVGEGLWindowSurfaceVGImageC2EP14QWindowSurface@Base 4:4.7.0~rc1
 _ZN26QVGEGLWindowSurfaceVGImageD0Ev@Base 4:4.7.0~rc1
 _ZN26QVGEGLWindowSurfaceVGImageD1Ev@Base 4:4.7.0~rc1
 _ZN26QVGEGLWindowSurfaceVGImageD2Ev@Base 4:4.7.0~rc1
 _ZNK12QPaintDevice7devTypeEv@Base 4:4.7.0~rc1
 _ZNK13QVGPixmapData11paintEngineEv@Base 4:4.7.0~rc1
 _ZNK13QVGPixmapData12sourceFormatEv@Base 4:4.7.0~rc1
 _ZNK13QVGPixmapData15hasAlphaChannelEv@Base 4:4.7.0~rc1
 _ZNK13QVGPixmapData26createCompatiblePixmapDataEv@Base 4:4.7.0~rc1
 _ZNK13QVGPixmapData6metricEN12QPaintDevice17PaintDeviceMetricE@Base 4:4.7.0~rc1
 _ZNK13QVGPixmapData7isValidEv@Base 4:4.7.0~rc1
 _ZNK13QVGPixmapData7toImageEv@Base 4:4.7.0~rc1
 _ZNK14QVGPaintEngine11createStateEP13QPainterState@Base 4:4.7.0~rc1
 _ZNK16QVGWindowSurface11paintEngineEv@Base 4:4.7.0~rc1
 _ZNK16QVGWindowSurface6metricEN12QPaintDevice17PaintDeviceMetricE@Base 4:4.7.0~rc1
 _ZNK25QVGEGLWindowSurfaceDirect22supportsStaticContentsEv@Base 4:4.7.0~rc1
 _ZNK26QVGEGLWindowSurfacePrivate12surfaceImageEv@Base 4:4.7.0~rc1
 _ZNK26QVGEGLWindowSurfacePrivate17windowSurfaceSizeEP7QWidget@Base 4:4.7.0~rc1
 _ZNK26QVGEGLWindowSurfaceVGImage11mainSurfaceEv@Base 4:4.7.0~rc1
 _ZNK26QVGEGLWindowSurfaceVGImage12surfaceImageEv@Base 4:4.7.0~rc1
 _ZNK6QRectF6toRectEv@Base 4:4.7.0~rc1
 _ZTI12QDashStroker@Base 4:4.7.0~rc1
 _ZTI12QVGImagePool@Base 4:4.7.0~rc1
 _ZTI13QVGPixmapData@Base 4:4.7.0~rc1
 _ZTI14QVGPaintEngine@Base 4:4.7.0~rc1
 _ZTI15QVGPainterState@Base 4:4.7.0~rc1
 _ZTI16QVGWindowSurface@Base 4:4.7.0~rc1
 _ZTI20QVGCompositionHelper@Base 4:4.7.0~rc1
 _ZTI25QVGEGLWindowSurfaceDirect@Base 4:4.7.0~rc1
 _ZTI26QVGEGLWindowSurfacePrivate@Base 4:4.7.0~rc1
 _ZTI26QVGEGLWindowSurfaceVGImage@Base 4:4.7.0~rc1
 _ZTS12QDashStroker@Base 4:4.7.0~rc1
 _ZTS12QVGImagePool@Base 4:4.7.0~rc1
 _ZTS13QVGPixmapData@Base 4:4.7.0~rc1
 _ZTS14QVGPaintEngine@Base 4:4.7.0~rc1
 _ZTS15QVGPainterState@Base 4:4.7.0~rc1
 _ZTS16QVGWindowSurface@Base 4:4.7.0~rc1
 _ZTS20QVGCompositionHelper@Base 4:4.7.0~rc1
 _ZTS25QVGEGLWindowSurfaceDirect@Base 4:4.7.0~rc1
 _ZTS26QVGEGLWindowSurfacePrivate@Base 4:4.7.0~rc1
 _ZTS26QVGEGLWindowSurfaceVGImage@Base 4:4.7.0~rc1
 _ZTV12QDashStroker@Base 4:4.7.0~rc1
 _ZTV12QVGImagePool@Base 4:4.7.0~rc1
 _ZTV13QVGPixmapData@Base 4:4.7.0~rc1
 _ZTV14QVGPaintEngine@Base 4:4.7.0~rc1
 _ZTV15QVGPainterState@Base 4:4.7.0~rc1
 _ZTV16QVGWindowSurface@Base 4:4.7.0~rc1
 _ZTV20QVGCompositionHelper@Base 4:4.7.0~rc1
 _ZTV25QVGEGLWindowSurfaceDirect@Base 4:4.7.0~rc1
 _ZTV26QVGEGLWindowSurfacePrivate@Base 4:4.7.0~rc1
 _ZTV26QVGEGLWindowSurfaceVGImage@Base 4:4.7.0~rc1
 _ZThn16_N16QVGWindowSurfaceD0Ev@Base 4:4.7.0~rc1
 _ZThn16_N16QVGWindowSurfaceD1Ev@Base 4:4.7.0~rc1
 _ZThn16_NK16QVGWindowSurface11paintEngineEv@Base 4:4.7.0~rc1
 _ZThn16_NK16QVGWindowSurface6metricEN12QPaintDevice17PaintDeviceMetricE@Base 4:4.7.0~rc1
